target datalayout = "e-m:e-p270:32:32-p271:32:32-p272:64:64-i64:64-i128:128-f80:128-n8:16:32:64-S128"
target triple = "x86_64-pc-linux-gnu"

%"class.rocksdb::InMemoryStatsHistoryIterator" = type { %"class.rocksdb::StatsHistoryIterator", i64, i64, i64, %"class.std::map", %"class.rocksdb::Status", i8, ptr }
%"class.rocksdb::StatsHistoryIterator" = type { ptr }
%"class.std::map" = type { %"class.std::_Rb_tree" }
%"class.std::_Rb_tree" = type { %"struct.std::_Rb_tree<std::__cxx11::basic_string<char>, std::pair<const std::__cxx11::basic_string<char>, unsigned long>, std::_Select1st<std::pair<const std::__cxx11::basic_string<char>, unsigned long>>, std::less<std::__cxx11::basic_string<char>>>::_Rb_tree_impl" }
%"struct.std::_Rb_tree<std::__cxx11::basic_string<char>, std::pair<const std::__cxx11::basic_string<char>, unsigned long>, std::_Select1st<std::pair<const std::__cxx11::basic_string<char>, unsigned long>>, std::less<std::__cxx11::basic_string<char>>>::_Rb_tree_impl" = type { [8 x i8], %"struct.std::_Rb_tree_header" }
%"struct.std::_Rb_tree_header" = type { %"struct.std::_Rb_tree_node_base", i64 }
%"struct.std::_Rb_tree_node_base" = type { i32, ptr, ptr, ptr }
%"class.rocksdb::Status" = type { i8, i8, i8, i8, i8, i8, %"class.std::unique_ptr" }
%"class.std::unique_ptr" = type { %"struct.std::__uniq_ptr_data" }
%"struct.std::__uniq_ptr_data" = type { %"class.std::__uniq_ptr_impl" }
%"class.std::__uniq_ptr_impl" = type { %"class.std::tuple" }
%"class.std::tuple" = type { %"struct.std::_Tuple_impl" }
%"struct.std::_Tuple_impl" = type { %"struct.std::_Head_base.7" }
%"struct.std::_Head_base.7" = type { ptr }

; Function Attrs: mustprogress uwtable
define void @_ZN7rocksdb28InMemoryStatsHistoryIterator21AdvanceIteratorByTimeEmm(ptr noundef nonnull align 8 dereferenceable(112) %0, i64 noundef %1, i64 noundef %2) #5 align 2 {
  %4 = alloca ptr, align 8
  %5 = alloca i64, align 8
  %6 = alloca i64, align 8
  store ptr %0, ptr %4, align 8, !tbaa !48
  store i64 %1, ptr %5, align 8, !tbaa !4
  store i64 %2, ptr %6, align 8, !tbaa !4
  %7 = load ptr, ptr %4, align 8
  %8 = getelementptr inbounds nuw %"class.rocksdb::InMemoryStatsHistoryIterator", ptr %7, i32 0, i32 7
  %9 = load ptr, ptr %8, align 8, !tbaa !89
  %10 = icmp ne ptr %9, null
  br i1 %10, label %11, label %21

11:                                               ; preds = %3
  %12 = getelementptr inbounds nuw %"class.rocksdb::InMemoryStatsHistoryIterator", ptr %7, i32 0, i32 7
  %13 = load ptr, ptr %12, align 8, !tbaa !89
  %14 = load i64, ptr %5, align 8, !tbaa !4
  %15 = load i64, ptr %6, align 8, !tbaa !4
  %16 = getelementptr inbounds nuw %"class.rocksdb::InMemoryStatsHistoryIterator", ptr %7, i32 0, i32 1
  %17 = getelementptr inbounds nuw %"class.rocksdb::InMemoryStatsHistoryIterator", ptr %7, i32 0, i32 4
  %18 = call noundef zeroext i1 @_ZN7rocksdb6DBImpl15FindStatsByTimeEmmPmPSt3mapINSt7__cxx1112basic_stringIcSt11char_traitsIcESaIcEEEmSt4lessIS8_ESaISt4pairIKS8_mEEE(ptr noundef nonnull align 64 dereferenceable(6868) %13, i64 noundef %14, i64 noundef %15, ptr noundef %16, ptr noundef %17)
  %19 = getelementptr inbounds nuw %"class.rocksdb::InMemoryStatsHistoryIterator", ptr %7, i32 0, i32 6
  %20 = zext i1 %18 to i8
  store i8 %20, ptr %19, align 8, !tbaa !56
  br label %23

21:                                               ; preds = %3
  %22 = getelementptr inbounds nuw %"class.rocksdb::InMemoryStatsHistoryIterator", ptr %7, i32 0, i32 6
  store i8 0, ptr %22, align 8, !tbaa !56
  br label %23

23:                                               ; preds = %21, %11
  ret void
}