; Function Attrs: mustprogress uwtable
define void @_ZN7rocksdb28InMemoryStatsHistoryIterator21AdvanceIteratorByTimeEmm(ptr noundef nonnull align 8 dereferenceable(112) %0, i64 noundef %1, i64 noundef %2) local_unnamed_addr #6 align 2 {
  %4 = getelementptr inbounds nuw i8, ptr %0, i64 104
  %5 = load ptr, ptr %4, align 8, !tbaa !52
  %.not = icmp eq ptr %5, null
  br i1 %.not, label %11, label %6

6:                                                ; preds = %3
  %7 = getelementptr inbounds nuw i8, ptr %0, i64 8
  %8 = getelementptr inbounds nuw i8, ptr %0, i64 32
  %9 = tail call noundef zeroext i1 @_ZN7rocksdb6DBImpl15FindStatsByTimeEmmPmPSt3mapINSt7__cxx1112basic_stringIcSt11char_traitsIcESaIcEEEmSt4lessIS8_ESaISt4pairIKS8_mEEE(ptr noundef nonnull align 64 dereferenceable(6868) %5, i64 noundef %1, i64 noundef %2, ptr noundef nonnull %7, ptr noundef nonnull %8)
  %10 = zext i1 %9 to i8
  br label %11

11:                                               ; preds = %3, %6
  %.sink = phi i8 [ %10, %6 ], [ 0, %3 ]
  %12 = getelementptr inbounds nuw i8, ptr %0, i64 96
  store i8 %.sink, ptr %12, align 8, !tbaa !24
  ret void
}